
user/_kill:     file format elf64-littleriscv


Disassembly of section .text:

0000000000000000 <main>:
   0:	1101                	addi	sp,sp,-32
   2:	ec06                	sd	ra,24(sp)
   4:	e822                	sd	s0,16(sp)
   6:	e426                	sd	s1,8(sp)
   8:	e04a                	sd	s2,0(sp)
   a:	1000                	addi	s0,sp,32
   c:	4785                	li	a5,1
   e:	02a7dd63          	bge	a5,a0,48 <main+0x48>
  12:	00858493          	addi	s1,a1,8
  16:	ffe5091b          	addiw	s2,a0,-2
  1a:	1902                	slli	s2,s2,0x20
  1c:	02095913          	srli	s2,s2,0x20
  20:	090e                	slli	s2,s2,0x3
  22:	05c1                	addi	a1,a1,16
  24:	992e                	add	s2,s2,a1
  26:	6088                	ld	a0,0(s1)
  28:	00000097          	auipc	ra,0x0
  2c:	1ae080e7          	jalr	430(ra) # 1d6 <atoi>
  30:	00000097          	auipc	ra,0x0
  34:	2d2080e7          	jalr	722(ra) # 302 <kill>
  38:	04a1                	addi	s1,s1,8
  3a:	ff2496e3          	bne	s1,s2,26 <main+0x26>
  3e:	4501                	li	a0,0
  40:	00000097          	auipc	ra,0x0
  44:	292080e7          	jalr	658(ra) # 2d2 <exit>
  48:	00001597          	auipc	a1,0x1
  4c:	83858593          	addi	a1,a1,-1992 # 880 <l_free+0x12>
  50:	4509                	li	a0,2
  52:	00000097          	auipc	ra,0x0
  56:	5cc080e7          	jalr	1484(ra) # 61e <fprintf>
  5a:	4505                	li	a0,1
  5c:	00000097          	auipc	ra,0x0
  60:	276080e7          	jalr	630(ra) # 2d2 <exit>

0000000000000064 <strcpy>:
  64:	1141                	addi	sp,sp,-16
  66:	e422                	sd	s0,8(sp)
  68:	0800                	addi	s0,sp,16
  6a:	87aa                	mv	a5,a0
  6c:	0585                	addi	a1,a1,1
  6e:	0785                	addi	a5,a5,1
  70:	fff5c703          	lbu	a4,-1(a1)
  74:	fee78fa3          	sb	a4,-1(a5)
  78:	fb75                	bnez	a4,6c <strcpy+0x8>
  7a:	6422                	ld	s0,8(sp)
  7c:	0141                	addi	sp,sp,16
  7e:	8082                	ret

0000000000000080 <strcmp>:
  80:	1141                	addi	sp,sp,-16
  82:	e422                	sd	s0,8(sp)
  84:	0800                	addi	s0,sp,16
  86:	00054783          	lbu	a5,0(a0)
  8a:	cb91                	beqz	a5,9e <strcmp+0x1e>
  8c:	0005c703          	lbu	a4,0(a1)
  90:	00f71763          	bne	a4,a5,9e <strcmp+0x1e>
  94:	0505                	addi	a0,a0,1
  96:	0585                	addi	a1,a1,1
  98:	00054783          	lbu	a5,0(a0)
  9c:	fbe5                	bnez	a5,8c <strcmp+0xc>
  9e:	0005c503          	lbu	a0,0(a1)
  a2:	40a7853b          	subw	a0,a5,a0
  a6:	6422                	ld	s0,8(sp)
  a8:	0141                	addi	sp,sp,16
  aa:	8082                	ret

00000000000000ac <strlen>:
  ac:	1141                	addi	sp,sp,-16
  ae:	e422                	sd	s0,8(sp)
  b0:	0800                	addi	s0,sp,16
  b2:	00054783          	lbu	a5,0(a0)
  b6:	cf91                	beqz	a5,d2 <strlen+0x26>
  b8:	0505                	addi	a0,a0,1
  ba:	87aa                	mv	a5,a0
  bc:	4685                	li	a3,1
  be:	9e89                	subw	a3,a3,a0
  c0:	00f6853b          	addw	a0,a3,a5
  c4:	0785                	addi	a5,a5,1
  c6:	fff7c703          	lbu	a4,-1(a5)
  ca:	fb7d                	bnez	a4,c0 <strlen+0x14>
  cc:	6422                	ld	s0,8(sp)
  ce:	0141                	addi	sp,sp,16
  d0:	8082                	ret
  d2:	4501                	li	a0,0
  d4:	bfe5                	j	cc <strlen+0x20>

00000000000000d6 <memset>:
  d6:	1141                	addi	sp,sp,-16
  d8:	e422                	sd	s0,8(sp)
  da:	0800                	addi	s0,sp,16
  dc:	ca19                	beqz	a2,f2 <memset+0x1c>
  de:	87aa                	mv	a5,a0
  e0:	1602                	slli	a2,a2,0x20
  e2:	9201                	srli	a2,a2,0x20
  e4:	00a60733          	add	a4,a2,a0
  e8:	00b78023          	sb	a1,0(a5)
  ec:	0785                	addi	a5,a5,1
  ee:	fee79de3          	bne	a5,a4,e8 <memset+0x12>
  f2:	6422                	ld	s0,8(sp)
  f4:	0141                	addi	sp,sp,16
  f6:	8082                	ret

00000000000000f8 <strchr>:
  f8:	1141                	addi	sp,sp,-16
  fa:	e422                	sd	s0,8(sp)
  fc:	0800                	addi	s0,sp,16
  fe:	00054783          	lbu	a5,0(a0)
 102:	cb99                	beqz	a5,118 <strchr+0x20>
 104:	00f58763          	beq	a1,a5,112 <strchr+0x1a>
 108:	0505                	addi	a0,a0,1
 10a:	00054783          	lbu	a5,0(a0)
 10e:	fbfd                	bnez	a5,104 <strchr+0xc>
 110:	4501                	li	a0,0
 112:	6422                	ld	s0,8(sp)
 114:	0141                	addi	sp,sp,16
 116:	8082                	ret
 118:	4501                	li	a0,0
 11a:	bfe5                	j	112 <strchr+0x1a>

000000000000011c <gets>:
 11c:	711d                	addi	sp,sp,-96
 11e:	ec86                	sd	ra,88(sp)
 120:	e8a2                	sd	s0,80(sp)
 122:	e4a6                	sd	s1,72(sp)
 124:	e0ca                	sd	s2,64(sp)
 126:	fc4e                	sd	s3,56(sp)
 128:	f852                	sd	s4,48(sp)
 12a:	f456                	sd	s5,40(sp)
 12c:	f05a                	sd	s6,32(sp)
 12e:	ec5e                	sd	s7,24(sp)
 130:	1080                	addi	s0,sp,96
 132:	8baa                	mv	s7,a0
 134:	8a2e                	mv	s4,a1
 136:	892a                	mv	s2,a0
 138:	4481                	li	s1,0
 13a:	4aa9                	li	s5,10
 13c:	4b35                	li	s6,13
 13e:	89a6                	mv	s3,s1
 140:	2485                	addiw	s1,s1,1
 142:	0344d863          	bge	s1,s4,172 <gets+0x56>
 146:	4605                	li	a2,1
 148:	faf40593          	addi	a1,s0,-81
 14c:	4501                	li	a0,0
 14e:	00000097          	auipc	ra,0x0
 152:	19c080e7          	jalr	412(ra) # 2ea <read>
 156:	00a05e63          	blez	a0,172 <gets+0x56>
 15a:	faf44783          	lbu	a5,-81(s0)
 15e:	00f90023          	sb	a5,0(s2)
 162:	01578763          	beq	a5,s5,170 <gets+0x54>
 166:	0905                	addi	s2,s2,1
 168:	fd679be3          	bne	a5,s6,13e <gets+0x22>
 16c:	89a6                	mv	s3,s1
 16e:	a011                	j	172 <gets+0x56>
 170:	89a6                	mv	s3,s1
 172:	99de                	add	s3,s3,s7
 174:	00098023          	sb	zero,0(s3)
 178:	855e                	mv	a0,s7
 17a:	60e6                	ld	ra,88(sp)
 17c:	6446                	ld	s0,80(sp)
 17e:	64a6                	ld	s1,72(sp)
 180:	6906                	ld	s2,64(sp)
 182:	79e2                	ld	s3,56(sp)
 184:	7a42                	ld	s4,48(sp)
 186:	7aa2                	ld	s5,40(sp)
 188:	7b02                	ld	s6,32(sp)
 18a:	6be2                	ld	s7,24(sp)
 18c:	6125                	addi	sp,sp,96
 18e:	8082                	ret

0000000000000190 <stat>:
 190:	1101                	addi	sp,sp,-32
 192:	ec06                	sd	ra,24(sp)
 194:	e822                	sd	s0,16(sp)
 196:	e426                	sd	s1,8(sp)
 198:	e04a                	sd	s2,0(sp)
 19a:	1000                	addi	s0,sp,32
 19c:	892e                	mv	s2,a1
 19e:	4581                	li	a1,0
 1a0:	00000097          	auipc	ra,0x0
 1a4:	172080e7          	jalr	370(ra) # 312 <open>
 1a8:	02054563          	bltz	a0,1d2 <stat+0x42>
 1ac:	84aa                	mv	s1,a0
 1ae:	85ca                	mv	a1,s2
 1b0:	00000097          	auipc	ra,0x0
 1b4:	17a080e7          	jalr	378(ra) # 32a <fstat>
 1b8:	892a                	mv	s2,a0
 1ba:	8526                	mv	a0,s1
 1bc:	00000097          	auipc	ra,0x0
 1c0:	13e080e7          	jalr	318(ra) # 2fa <close>
 1c4:	854a                	mv	a0,s2
 1c6:	60e2                	ld	ra,24(sp)
 1c8:	6442                	ld	s0,16(sp)
 1ca:	64a2                	ld	s1,8(sp)
 1cc:	6902                	ld	s2,0(sp)
 1ce:	6105                	addi	sp,sp,32
 1d0:	8082                	ret
 1d2:	597d                	li	s2,-1
 1d4:	bfc5                	j	1c4 <stat+0x34>

00000000000001d6 <atoi>:
 1d6:	1141                	addi	sp,sp,-16
 1d8:	e422                	sd	s0,8(sp)
 1da:	0800                	addi	s0,sp,16
 1dc:	00054603          	lbu	a2,0(a0)
 1e0:	fd06079b          	addiw	a5,a2,-48
 1e4:	0ff7f793          	zext.b	a5,a5
 1e8:	4725                	li	a4,9
 1ea:	02f76963          	bltu	a4,a5,21c <atoi+0x46>
 1ee:	86aa                	mv	a3,a0
 1f0:	4501                	li	a0,0
 1f2:	45a5                	li	a1,9
 1f4:	0685                	addi	a3,a3,1
 1f6:	0025179b          	slliw	a5,a0,0x2
 1fa:	9fa9                	addw	a5,a5,a0
 1fc:	0017979b          	slliw	a5,a5,0x1
 200:	9fb1                	addw	a5,a5,a2
 202:	fd07851b          	addiw	a0,a5,-48
 206:	0006c603          	lbu	a2,0(a3)
 20a:	fd06071b          	addiw	a4,a2,-48
 20e:	0ff77713          	zext.b	a4,a4
 212:	fee5f1e3          	bgeu	a1,a4,1f4 <atoi+0x1e>
 216:	6422                	ld	s0,8(sp)
 218:	0141                	addi	sp,sp,16
 21a:	8082                	ret
 21c:	4501                	li	a0,0
 21e:	bfe5                	j	216 <atoi+0x40>

0000000000000220 <memmove>:
 220:	1141                	addi	sp,sp,-16
 222:	e422                	sd	s0,8(sp)
 224:	0800                	addi	s0,sp,16
 226:	02b57463          	bgeu	a0,a1,24e <memmove+0x2e>
 22a:	00c05f63          	blez	a2,248 <memmove+0x28>
 22e:	1602                	slli	a2,a2,0x20
 230:	9201                	srli	a2,a2,0x20
 232:	00c507b3          	add	a5,a0,a2
 236:	872a                	mv	a4,a0
 238:	0585                	addi	a1,a1,1
 23a:	0705                	addi	a4,a4,1
 23c:	fff5c683          	lbu	a3,-1(a1)
 240:	fed70fa3          	sb	a3,-1(a4)
 244:	fee79ae3          	bne	a5,a4,238 <memmove+0x18>
 248:	6422                	ld	s0,8(sp)
 24a:	0141                	addi	sp,sp,16
 24c:	8082                	ret
 24e:	00c50733          	add	a4,a0,a2
 252:	95b2                	add	a1,a1,a2
 254:	fec05ae3          	blez	a2,248 <memmove+0x28>
 258:	fff6079b          	addiw	a5,a2,-1
 25c:	1782                	slli	a5,a5,0x20
 25e:	9381                	srli	a5,a5,0x20
 260:	fff7c793          	not	a5,a5
 264:	97ba                	add	a5,a5,a4
 266:	15fd                	addi	a1,a1,-1
 268:	177d                	addi	a4,a4,-1
 26a:	0005c683          	lbu	a3,0(a1)
 26e:	00d70023          	sb	a3,0(a4)
 272:	fee79ae3          	bne	a5,a4,266 <memmove+0x46>
 276:	bfc9                	j	248 <memmove+0x28>

0000000000000278 <memcmp>:
 278:	1141                	addi	sp,sp,-16
 27a:	e422                	sd	s0,8(sp)
 27c:	0800                	addi	s0,sp,16
 27e:	ca05                	beqz	a2,2ae <memcmp+0x36>
 280:	fff6069b          	addiw	a3,a2,-1
 284:	1682                	slli	a3,a3,0x20
 286:	9281                	srli	a3,a3,0x20
 288:	0685                	addi	a3,a3,1
 28a:	96aa                	add	a3,a3,a0
 28c:	00054783          	lbu	a5,0(a0)
 290:	0005c703          	lbu	a4,0(a1)
 294:	00e79863          	bne	a5,a4,2a4 <memcmp+0x2c>
 298:	0505                	addi	a0,a0,1
 29a:	0585                	addi	a1,a1,1
 29c:	fed518e3          	bne	a0,a3,28c <memcmp+0x14>
 2a0:	4501                	li	a0,0
 2a2:	a019                	j	2a8 <memcmp+0x30>
 2a4:	40e7853b          	subw	a0,a5,a4
 2a8:	6422                	ld	s0,8(sp)
 2aa:	0141                	addi	sp,sp,16
 2ac:	8082                	ret
 2ae:	4501                	li	a0,0
 2b0:	bfe5                	j	2a8 <memcmp+0x30>

00000000000002b2 <memcpy>:
 2b2:	1141                	addi	sp,sp,-16
 2b4:	e406                	sd	ra,8(sp)
 2b6:	e022                	sd	s0,0(sp)
 2b8:	0800                	addi	s0,sp,16
 2ba:	00000097          	auipc	ra,0x0
 2be:	f66080e7          	jalr	-154(ra) # 220 <memmove>
 2c2:	60a2                	ld	ra,8(sp)
 2c4:	6402                	ld	s0,0(sp)
 2c6:	0141                	addi	sp,sp,16
 2c8:	8082                	ret

00000000000002ca <fork>:
 2ca:	4885                	li	a7,1
 2cc:	00000073          	ecall
 2d0:	8082                	ret

00000000000002d2 <exit>:
 2d2:	4889                	li	a7,2
 2d4:	00000073          	ecall
 2d8:	8082                	ret

00000000000002da <wait>:
 2da:	488d                	li	a7,3
 2dc:	00000073          	ecall
 2e0:	8082                	ret

00000000000002e2 <pipe>:
 2e2:	4891                	li	a7,4
 2e4:	00000073          	ecall
 2e8:	8082                	ret

00000000000002ea <read>:
 2ea:	4895                	li	a7,5
 2ec:	00000073          	ecall
 2f0:	8082                	ret

00000000000002f2 <write>:
 2f2:	48c1                	li	a7,16
 2f4:	00000073          	ecall
 2f8:	8082                	ret

00000000000002fa <close>:
 2fa:	48d5                	li	a7,21
 2fc:	00000073          	ecall
 300:	8082                	ret

0000000000000302 <kill>:
 302:	4899                	li	a7,6
 304:	00000073          	ecall
 308:	8082                	ret

000000000000030a <exec>:
 30a:	489d                	li	a7,7
 30c:	00000073          	ecall
 310:	8082                	ret

0000000000000312 <open>:
 312:	48bd                	li	a7,15
 314:	00000073          	ecall
 318:	8082                	ret

000000000000031a <mknod>:
 31a:	48c5                	li	a7,17
 31c:	00000073          	ecall
 320:	8082                	ret

0000000000000322 <unlink>:
 322:	48c9                	li	a7,18
 324:	00000073          	ecall
 328:	8082                	ret

000000000000032a <fstat>:
 32a:	48a1                	li	a7,8
 32c:	00000073          	ecall
 330:	8082                	ret

0000000000000332 <link>:
 332:	48cd                	li	a7,19
 334:	00000073          	ecall
 338:	8082                	ret

000000000000033a <mkdir>:
 33a:	48d1                	li	a7,20
 33c:	00000073          	ecall
 340:	8082                	ret

0000000000000342 <chdir>:
 342:	48a5                	li	a7,9
 344:	00000073          	ecall
 348:	8082                	ret

000000000000034a <dup>:
 34a:	48a9                	li	a7,10
 34c:	00000073          	ecall
 350:	8082                	ret

0000000000000352 <getpid>:
 352:	48ad                	li	a7,11
 354:	00000073          	ecall
 358:	8082                	ret

000000000000035a <sbrk>:
 35a:	48b1                	li	a7,12
 35c:	00000073          	ecall
 360:	8082                	ret

0000000000000362 <sleep>:
 362:	48b5                	li	a7,13
 364:	00000073          	ecall
 368:	8082                	ret

000000000000036a <uptime>:
 36a:	48b9                	li	a7,14
 36c:	00000073          	ecall
 370:	8082                	ret

0000000000000372 <putc>:

static char digits[] = "0123456789ABCDEF";

static void
putc(int fd, char c)
{
 372:	1101                	addi	sp,sp,-32
 374:	ec06                	sd	ra,24(sp)
 376:	e822                	sd	s0,16(sp)
 378:	1000                	addi	s0,sp,32
 37a:	feb407a3          	sb	a1,-17(s0)
  write(fd, &c, 1);
 37e:	4605                	li	a2,1
 380:	fef40593          	addi	a1,s0,-17
 384:	00000097          	auipc	ra,0x0
 388:	f6e080e7          	jalr	-146(ra) # 2f2 <write>
}
 38c:	60e2                	ld	ra,24(sp)
 38e:	6442                	ld	s0,16(sp)
 390:	6105                	addi	sp,sp,32
 392:	8082                	ret

0000000000000394 <printint>:

static void
printint(int fd, int xx, int base, int sgn)
{
 394:	7139                	addi	sp,sp,-64
 396:	fc06                	sd	ra,56(sp)
 398:	f822                	sd	s0,48(sp)
 39a:	f426                	sd	s1,40(sp)
 39c:	f04a                	sd	s2,32(sp)
 39e:	ec4e                	sd	s3,24(sp)
 3a0:	0080                	addi	s0,sp,64
 3a2:	84aa                	mv	s1,a0
  char buf[16];
  int i, neg;
  uint x;

  neg = 0;
  if(sgn && xx < 0){
 3a4:	c299                	beqz	a3,3aa <printint+0x16>
 3a6:	0805c963          	bltz	a1,438 <printint+0xa4>
    neg = 1;
    x = -xx;
  } else {
    x = xx;
 3aa:	2581                	sext.w	a1,a1
  neg = 0;
 3ac:	4881                	li	a7,0
 3ae:	fc040693          	addi	a3,s0,-64
  }

  i = 0;
 3b2:	4701                	li	a4,0
  do{
    buf[i++] = digits[x % base];
 3b4:	2601                	sext.w	a2,a2
 3b6:	00000517          	auipc	a0,0x0
 3ba:	54250513          	addi	a0,a0,1346 # 8f8 <digits>
 3be:	883a                	mv	a6,a4
 3c0:	2705                	addiw	a4,a4,1
 3c2:	02c5f7bb          	remuw	a5,a1,a2
 3c6:	1782                	slli	a5,a5,0x20
 3c8:	9381                	srli	a5,a5,0x20
 3ca:	97aa                	add	a5,a5,a0
 3cc:	0007c783          	lbu	a5,0(a5)
 3d0:	00f68023          	sb	a5,0(a3)
  }while((x /= base) != 0);
 3d4:	0005879b          	sext.w	a5,a1
 3d8:	02c5d5bb          	divuw	a1,a1,a2
 3dc:	0685                	addi	a3,a3,1
 3de:	fec7f0e3          	bgeu	a5,a2,3be <printint+0x2a>
  if(neg)
 3e2:	00088c63          	beqz	a7,3fa <printint+0x66>
    buf[i++] = '-';
 3e6:	fd070793          	addi	a5,a4,-48
 3ea:	00878733          	add	a4,a5,s0
 3ee:	02d00793          	li	a5,45
 3f2:	fef70823          	sb	a5,-16(a4)
 3f6:	0028071b          	addiw	a4,a6,2

  while(--i >= 0)
 3fa:	02e05863          	blez	a4,42a <printint+0x96>
 3fe:	fc040793          	addi	a5,s0,-64
 402:	00e78933          	add	s2,a5,a4
 406:	fff78993          	addi	s3,a5,-1
 40a:	99ba                	add	s3,s3,a4
 40c:	377d                	addiw	a4,a4,-1
 40e:	1702                	slli	a4,a4,0x20
 410:	9301                	srli	a4,a4,0x20
 412:	40e989b3          	sub	s3,s3,a4
    putc(fd, buf[i]);
 416:	fff94583          	lbu	a1,-1(s2)
 41a:	8526                	mv	a0,s1
 41c:	00000097          	auipc	ra,0x0
 420:	f56080e7          	jalr	-170(ra) # 372 <putc>
  while(--i >= 0)
 424:	197d                	addi	s2,s2,-1
 426:	ff3918e3          	bne	s2,s3,416 <printint+0x82>
}
 42a:	70e2                	ld	ra,56(sp)
 42c:	7442                	ld	s0,48(sp)
 42e:	74a2                	ld	s1,40(sp)
 430:	7902                	ld	s2,32(sp)
 432:	69e2                	ld	s3,24(sp)
 434:	6121                	addi	sp,sp,64
 436:	8082                	ret
    x = -xx;
 438:	40b005bb          	negw	a1,a1
    neg = 1;
 43c:	4885                	li	a7,1
    x = -xx;
 43e:	bf85                	j	3ae <printint+0x1a>

0000000000000440 <vprintf>:
}

// Print to the given fd. Only understands %d, %x, %p, %s.
void
vprintf(int fd, const char *fmt, va_list ap)
{
 440:	7119                	addi	sp,sp,-128
 442:	fc86                	sd	ra,120(sp)
 444:	f8a2                	sd	s0,112(sp)
 446:	f4a6                	sd	s1,104(sp)
 448:	f0ca                	sd	s2,96(sp)
 44a:	ecce                	sd	s3,88(sp)
 44c:	e8d2                	sd	s4,80(sp)
 44e:	e4d6                	sd	s5,72(sp)
 450:	e0da                	sd	s6,64(sp)
 452:	fc5e                	sd	s7,56(sp)
 454:	f862                	sd	s8,48(sp)
 456:	f466                	sd	s9,40(sp)
 458:	f06a                	sd	s10,32(sp)
 45a:	ec6e                	sd	s11,24(sp)
 45c:	0100                	addi	s0,sp,128
  char *s;
  int c, i, state;

  state = 0;
  for(i = 0; fmt[i]; i++){
 45e:	0005c903          	lbu	s2,0(a1)
 462:	18090f63          	beqz	s2,600 <vprintf+0x1c0>
 466:	8aaa                	mv	s5,a0
 468:	8b32                	mv	s6,a2
 46a:	00158493          	addi	s1,a1,1
  state = 0;
 46e:	4981                	li	s3,0
      if(c == '%'){
        state = '%';
      } else {
        putc(fd, c);
      }
    } else if(state == '%'){
 470:	02500a13          	li	s4,37
 474:	4c55                	li	s8,21
 476:	00000c97          	auipc	s9,0x0
 47a:	42ac8c93          	addi	s9,s9,1066 # 8a0 <l_free+0x32>
        printptr(fd, va_arg(ap, uint64));
      } else if(c == 's'){
        s = va_arg(ap, char*);
        if(s == 0)
          s = "(null)";
        while(*s != 0){
 47e:	02800d93          	li	s11,40
  putc(fd, 'x');
 482:	4d41                	li	s10,16
    putc(fd, digits[x >> (sizeof(uint64) * 8 - 4)]);
 484:	00000b97          	auipc	s7,0x0
 488:	474b8b93          	addi	s7,s7,1140 # 8f8 <digits>
 48c:	a839                	j	4aa <vprintf+0x6a>
        putc(fd, c);
 48e:	85ca                	mv	a1,s2
 490:	8556                	mv	a0,s5
 492:	00000097          	auipc	ra,0x0
 496:	ee0080e7          	jalr	-288(ra) # 372 <putc>
 49a:	a019                	j	4a0 <vprintf+0x60>
    } else if(state == '%'){
 49c:	01498d63          	beq	s3,s4,4b6 <vprintf+0x76>
  for(i = 0; fmt[i]; i++){
 4a0:	0485                	addi	s1,s1,1
 4a2:	fff4c903          	lbu	s2,-1(s1)
 4a6:	14090d63          	beqz	s2,600 <vprintf+0x1c0>
    if(state == 0){
 4aa:	fe0999e3          	bnez	s3,49c <vprintf+0x5c>
      if(c == '%'){
 4ae:	ff4910e3          	bne	s2,s4,48e <vprintf+0x4e>
        state = '%';
 4b2:	89d2                	mv	s3,s4
 4b4:	b7f5                	j	4a0 <vprintf+0x60>
      if(c == 'd'){
 4b6:	11490c63          	beq	s2,s4,5ce <vprintf+0x18e>
 4ba:	f9d9079b          	addiw	a5,s2,-99
 4be:	0ff7f793          	zext.b	a5,a5
 4c2:	10fc6e63          	bltu	s8,a5,5de <vprintf+0x19e>
 4c6:	f9d9079b          	addiw	a5,s2,-99
 4ca:	0ff7f713          	zext.b	a4,a5
 4ce:	10ec6863          	bltu	s8,a4,5de <vprintf+0x19e>
 4d2:	00271793          	slli	a5,a4,0x2
 4d6:	97e6                	add	a5,a5,s9
 4d8:	439c                	lw	a5,0(a5)
 4da:	97e6                	add	a5,a5,s9
 4dc:	8782                	jr	a5
        printint(fd, va_arg(ap, int), 10, 1);
 4de:	008b0913          	addi	s2,s6,8
 4e2:	4685                	li	a3,1
 4e4:	4629                	li	a2,10
 4e6:	000b2583          	lw	a1,0(s6)
 4ea:	8556                	mv	a0,s5
 4ec:	00000097          	auipc	ra,0x0
 4f0:	ea8080e7          	jalr	-344(ra) # 394 <printint>
 4f4:	8b4a                	mv	s6,s2
      } else {
        // Unknown % sequence.  Print it to draw attention.
        putc(fd, '%');
        putc(fd, c);
      }
      state = 0;
 4f6:	4981                	li	s3,0
 4f8:	b765                	j	4a0 <vprintf+0x60>
        printint(fd, va_arg(ap, uint64), 10, 0);
 4fa:	008b0913          	addi	s2,s6,8
 4fe:	4681                	li	a3,0
 500:	4629                	li	a2,10
 502:	000b2583          	lw	a1,0(s6)
 506:	8556                	mv	a0,s5
 508:	00000097          	auipc	ra,0x0
 50c:	e8c080e7          	jalr	-372(ra) # 394 <printint>
 510:	8b4a                	mv	s6,s2
      state = 0;
 512:	4981                	li	s3,0
 514:	b771                	j	4a0 <vprintf+0x60>
        printint(fd, va_arg(ap, int), 16, 0);
 516:	008b0913          	addi	s2,s6,8
 51a:	4681                	li	a3,0
 51c:	866a                	mv	a2,s10
 51e:	000b2583          	lw	a1,0(s6)
 522:	8556                	mv	a0,s5
 524:	00000097          	auipc	ra,0x0
 528:	e70080e7          	jalr	-400(ra) # 394 <printint>
 52c:	8b4a                	mv	s6,s2
      state = 0;
 52e:	4981                	li	s3,0
 530:	bf85                	j	4a0 <vprintf+0x60>
        printptr(fd, va_arg(ap, uint64));
 532:	008b0793          	addi	a5,s6,8
 536:	f8f43423          	sd	a5,-120(s0)
 53a:	000b3983          	ld	s3,0(s6)
  putc(fd, '0');
 53e:	03000593          	li	a1,48
 542:	8556                	mv	a0,s5
 544:	00000097          	auipc	ra,0x0
 548:	e2e080e7          	jalr	-466(ra) # 372 <putc>
  putc(fd, 'x');
 54c:	07800593          	li	a1,120
 550:	8556                	mv	a0,s5
 552:	00000097          	auipc	ra,0x0
 556:	e20080e7          	jalr	-480(ra) # 372 <putc>
 55a:	896a                	mv	s2,s10
    putc(fd, digits[x >> (sizeof(uint64) * 8 - 4)]);
 55c:	03c9d793          	srli	a5,s3,0x3c
 560:	97de                	add	a5,a5,s7
 562:	0007c583          	lbu	a1,0(a5)
 566:	8556                	mv	a0,s5
 568:	00000097          	auipc	ra,0x0
 56c:	e0a080e7          	jalr	-502(ra) # 372 <putc>
  for (i = 0; i < (sizeof(uint64) * 2); i++, x <<= 4)
 570:	0992                	slli	s3,s3,0x4
 572:	397d                	addiw	s2,s2,-1
 574:	fe0914e3          	bnez	s2,55c <vprintf+0x11c>
        printptr(fd, va_arg(ap, uint64));
 578:	f8843b03          	ld	s6,-120(s0)
      state = 0;
 57c:	4981                	li	s3,0
 57e:	b70d                	j	4a0 <vprintf+0x60>
        s = va_arg(ap, char*);
 580:	008b0913          	addi	s2,s6,8
 584:	000b3983          	ld	s3,0(s6)
        if(s == 0)
 588:	02098163          	beqz	s3,5aa <vprintf+0x16a>
        while(*s != 0){
 58c:	0009c583          	lbu	a1,0(s3)
 590:	c5ad                	beqz	a1,5fa <vprintf+0x1ba>
          putc(fd, *s);
 592:	8556                	mv	a0,s5
 594:	00000097          	auipc	ra,0x0
 598:	dde080e7          	jalr	-546(ra) # 372 <putc>
          s++;
 59c:	0985                	addi	s3,s3,1
        while(*s != 0){
 59e:	0009c583          	lbu	a1,0(s3)
 5a2:	f9e5                	bnez	a1,592 <vprintf+0x152>
        s = va_arg(ap, char*);
 5a4:	8b4a                	mv	s6,s2
      state = 0;
 5a6:	4981                	li	s3,0
 5a8:	bde5                	j	4a0 <vprintf+0x60>
          s = "(null)";
 5aa:	00000997          	auipc	s3,0x0
 5ae:	2ee98993          	addi	s3,s3,750 # 898 <l_free+0x2a>
        while(*s != 0){
 5b2:	85ee                	mv	a1,s11
 5b4:	bff9                	j	592 <vprintf+0x152>
        putc(fd, va_arg(ap, uint));
 5b6:	008b0913          	addi	s2,s6,8
 5ba:	000b4583          	lbu	a1,0(s6)
 5be:	8556                	mv	a0,s5
 5c0:	00000097          	auipc	ra,0x0
 5c4:	db2080e7          	jalr	-590(ra) # 372 <putc>
 5c8:	8b4a                	mv	s6,s2
      state = 0;
 5ca:	4981                	li	s3,0
 5cc:	bdd1                	j	4a0 <vprintf+0x60>
        putc(fd, c);
 5ce:	85d2                	mv	a1,s4
 5d0:	8556                	mv	a0,s5
 5d2:	00000097          	auipc	ra,0x0
 5d6:	da0080e7          	jalr	-608(ra) # 372 <putc>
      state = 0;
 5da:	4981                	li	s3,0
 5dc:	b5d1                	j	4a0 <vprintf+0x60>
        putc(fd, '%');
 5de:	85d2                	mv	a1,s4
 5e0:	8556                	mv	a0,s5
 5e2:	00000097          	auipc	ra,0x0
 5e6:	d90080e7          	jalr	-624(ra) # 372 <putc>
        putc(fd, c);
 5ea:	85ca                	mv	a1,s2
 5ec:	8556                	mv	a0,s5
 5ee:	00000097          	auipc	ra,0x0
 5f2:	d84080e7          	jalr	-636(ra) # 372 <putc>
      state = 0;
 5f6:	4981                	li	s3,0
 5f8:	b565                	j	4a0 <vprintf+0x60>
        s = va_arg(ap, char*);
 5fa:	8b4a                	mv	s6,s2
      state = 0;
 5fc:	4981                	li	s3,0
 5fe:	b54d                	j	4a0 <vprintf+0x60>
    }
  }
}
 600:	70e6                	ld	ra,120(sp)
 602:	7446                	ld	s0,112(sp)
 604:	74a6                	ld	s1,104(sp)
 606:	7906                	ld	s2,96(sp)
 608:	69e6                	ld	s3,88(sp)
 60a:	6a46                	ld	s4,80(sp)
 60c:	6aa6                	ld	s5,72(sp)
 60e:	6b06                	ld	s6,64(sp)
 610:	7be2                	ld	s7,56(sp)
 612:	7c42                	ld	s8,48(sp)
 614:	7ca2                	ld	s9,40(sp)
 616:	7d02                	ld	s10,32(sp)
 618:	6de2                	ld	s11,24(sp)
 61a:	6109                	addi	sp,sp,128
 61c:	8082                	ret

000000000000061e <fprintf>:

void
fprintf(int fd, const char *fmt, ...)
{
 61e:	715d                	addi	sp,sp,-80
 620:	ec06                	sd	ra,24(sp)
 622:	e822                	sd	s0,16(sp)
 624:	1000                	addi	s0,sp,32
 626:	e010                	sd	a2,0(s0)
 628:	e414                	sd	a3,8(s0)
 62a:	e818                	sd	a4,16(s0)
 62c:	ec1c                	sd	a5,24(s0)
 62e:	03043023          	sd	a6,32(s0)
 632:	03143423          	sd	a7,40(s0)
  va_list ap;

  va_start(ap, fmt);
 636:	fe843423          	sd	s0,-24(s0)
  vprintf(fd, fmt, ap);
 63a:	8622                	mv	a2,s0
 63c:	00000097          	auipc	ra,0x0
 640:	e04080e7          	jalr	-508(ra) # 440 <vprintf>
}
 644:	60e2                	ld	ra,24(sp)
 646:	6442                	ld	s0,16(sp)
 648:	6161                	addi	sp,sp,80
 64a:	8082                	ret

000000000000064c <printf>:

void
printf(const char *fmt, ...)
{
 64c:	711d                	addi	sp,sp,-96
 64e:	ec06                	sd	ra,24(sp)
 650:	e822                	sd	s0,16(sp)
 652:	1000                	addi	s0,sp,32
 654:	e40c                	sd	a1,8(s0)
 656:	e810                	sd	a2,16(s0)
 658:	ec14                	sd	a3,24(s0)
 65a:	f018                	sd	a4,32(s0)
 65c:	f41c                	sd	a5,40(s0)
 65e:	03043823          	sd	a6,48(s0)
 662:	03143c23          	sd	a7,56(s0)
  va_list ap;

  va_start(ap, fmt);
 666:	00840613          	addi	a2,s0,8
 66a:	fec43423          	sd	a2,-24(s0)
  vprintf(1, fmt, ap);
 66e:	85aa                	mv	a1,a0
 670:	4505                	li	a0,1
 672:	00000097          	auipc	ra,0x0
 676:	dce080e7          	jalr	-562(ra) # 440 <vprintf>
}
 67a:	60e2                	ld	ra,24(sp)
 67c:	6442                	ld	s0,16(sp)
 67e:	6125                	addi	sp,sp,96
 680:	8082                	ret

0000000000000682 <free>:
 682:	1141                	addi	sp,sp,-16
 684:	e422                	sd	s0,8(sp)
 686:	0800                	addi	s0,sp,16
 688:	ff050693          	addi	a3,a0,-16
 68c:	00000797          	auipc	a5,0x0
 690:	2947b783          	ld	a5,660(a5) # 920 <freep>
 694:	a805                	j	6c4 <free+0x42>
 696:	4618                	lw	a4,8(a2)
 698:	9db9                	addw	a1,a1,a4
 69a:	feb52c23          	sw	a1,-8(a0)
 69e:	6398                	ld	a4,0(a5)
 6a0:	6318                	ld	a4,0(a4)
 6a2:	fee53823          	sd	a4,-16(a0)
 6a6:	a091                	j	6ea <free+0x68>
 6a8:	ff852703          	lw	a4,-8(a0)
 6ac:	9e39                	addw	a2,a2,a4
 6ae:	c790                	sw	a2,8(a5)
 6b0:	ff053703          	ld	a4,-16(a0)
 6b4:	e398                	sd	a4,0(a5)
 6b6:	a099                	j	6fc <free+0x7a>
 6b8:	6398                	ld	a4,0(a5)
 6ba:	00e7e463          	bltu	a5,a4,6c2 <free+0x40>
 6be:	00e6ea63          	bltu	a3,a4,6d2 <free+0x50>
 6c2:	87ba                	mv	a5,a4
 6c4:	fed7fae3          	bgeu	a5,a3,6b8 <free+0x36>
 6c8:	6398                	ld	a4,0(a5)
 6ca:	00e6e463          	bltu	a3,a4,6d2 <free+0x50>
 6ce:	fee7eae3          	bltu	a5,a4,6c2 <free+0x40>
 6d2:	ff852583          	lw	a1,-8(a0)
 6d6:	6390                	ld	a2,0(a5)
 6d8:	02059713          	slli	a4,a1,0x20
 6dc:	9301                	srli	a4,a4,0x20
 6de:	0712                	slli	a4,a4,0x4
 6e0:	9736                	add	a4,a4,a3
 6e2:	fae60ae3          	beq	a2,a4,696 <free+0x14>
 6e6:	fec53823          	sd	a2,-16(a0)
 6ea:	4790                	lw	a2,8(a5)
 6ec:	02061713          	slli	a4,a2,0x20
 6f0:	9301                	srli	a4,a4,0x20
 6f2:	0712                	slli	a4,a4,0x4
 6f4:	973e                	add	a4,a4,a5
 6f6:	fae689e3          	beq	a3,a4,6a8 <free+0x26>
 6fa:	e394                	sd	a3,0(a5)
 6fc:	00000717          	auipc	a4,0x0
 700:	22f73223          	sd	a5,548(a4) # 920 <freep>
 704:	6422                	ld	s0,8(sp)
 706:	0141                	addi	sp,sp,16
 708:	8082                	ret

000000000000070a <malloc>:
 70a:	7139                	addi	sp,sp,-64
 70c:	fc06                	sd	ra,56(sp)
 70e:	f822                	sd	s0,48(sp)
 710:	f426                	sd	s1,40(sp)
 712:	f04a                	sd	s2,32(sp)
 714:	ec4e                	sd	s3,24(sp)
 716:	e852                	sd	s4,16(sp)
 718:	e456                	sd	s5,8(sp)
 71a:	e05a                	sd	s6,0(sp)
 71c:	0080                	addi	s0,sp,64
 71e:	02051493          	slli	s1,a0,0x20
 722:	9081                	srli	s1,s1,0x20
 724:	04bd                	addi	s1,s1,15
 726:	8091                	srli	s1,s1,0x4
 728:	0014899b          	addiw	s3,s1,1
 72c:	0485                	addi	s1,s1,1
 72e:	00000517          	auipc	a0,0x0
 732:	1f253503          	ld	a0,498(a0) # 920 <freep>
 736:	c515                	beqz	a0,762 <malloc+0x58>
 738:	611c                	ld	a5,0(a0)
 73a:	4798                	lw	a4,8(a5)
 73c:	02977f63          	bgeu	a4,s1,77a <malloc+0x70>
 740:	8a4e                	mv	s4,s3
 742:	0009871b          	sext.w	a4,s3
 746:	6685                	lui	a3,0x1
 748:	00d77363          	bgeu	a4,a3,74e <malloc+0x44>
 74c:	6a05                	lui	s4,0x1
 74e:	000a0b1b          	sext.w	s6,s4
 752:	004a1a1b          	slliw	s4,s4,0x4
 756:	00000917          	auipc	s2,0x0
 75a:	1ca90913          	addi	s2,s2,458 # 920 <freep>
 75e:	5afd                	li	s5,-1
 760:	a88d                	j	7d2 <malloc+0xc8>
 762:	00000797          	auipc	a5,0x0
 766:	1c678793          	addi	a5,a5,454 # 928 <base>
 76a:	00000717          	auipc	a4,0x0
 76e:	1af73b23          	sd	a5,438(a4) # 920 <freep>
 772:	e39c                	sd	a5,0(a5)
 774:	0007a423          	sw	zero,8(a5)
 778:	b7e1                	j	740 <malloc+0x36>
 77a:	02e48b63          	beq	s1,a4,7b0 <malloc+0xa6>
 77e:	4137073b          	subw	a4,a4,s3
 782:	c798                	sw	a4,8(a5)
 784:	1702                	slli	a4,a4,0x20
 786:	9301                	srli	a4,a4,0x20
 788:	0712                	slli	a4,a4,0x4
 78a:	97ba                	add	a5,a5,a4
 78c:	0137a423          	sw	s3,8(a5)
 790:	00000717          	auipc	a4,0x0
 794:	18a73823          	sd	a0,400(a4) # 920 <freep>
 798:	01078513          	addi	a0,a5,16
 79c:	70e2                	ld	ra,56(sp)
 79e:	7442                	ld	s0,48(sp)
 7a0:	74a2                	ld	s1,40(sp)
 7a2:	7902                	ld	s2,32(sp)
 7a4:	69e2                	ld	s3,24(sp)
 7a6:	6a42                	ld	s4,16(sp)
 7a8:	6aa2                	ld	s5,8(sp)
 7aa:	6b02                	ld	s6,0(sp)
 7ac:	6121                	addi	sp,sp,64
 7ae:	8082                	ret
 7b0:	6398                	ld	a4,0(a5)
 7b2:	e118                	sd	a4,0(a0)
 7b4:	bff1                	j	790 <malloc+0x86>
 7b6:	01652423          	sw	s6,8(a0)
 7ba:	0541                	addi	a0,a0,16
 7bc:	00000097          	auipc	ra,0x0
 7c0:	ec6080e7          	jalr	-314(ra) # 682 <free>
 7c4:	00093503          	ld	a0,0(s2)
 7c8:	d971                	beqz	a0,79c <malloc+0x92>
 7ca:	611c                	ld	a5,0(a0)
 7cc:	4798                	lw	a4,8(a5)
 7ce:	fa9776e3          	bgeu	a4,s1,77a <malloc+0x70>
 7d2:	00093703          	ld	a4,0(s2)
 7d6:	853e                	mv	a0,a5
 7d8:	fef719e3          	bne	a4,a5,7ca <malloc+0xc0>
 7dc:	8552                	mv	a0,s4
 7de:	00000097          	auipc	ra,0x0
 7e2:	b7c080e7          	jalr	-1156(ra) # 35a <sbrk>
 7e6:	fd5518e3          	bne	a0,s5,7b6 <malloc+0xac>
 7ea:	4501                	li	a0,0
 7ec:	bf45                	j	79c <malloc+0x92>

00000000000007ee <mem_init>:
 7ee:	1141                	addi	sp,sp,-16
 7f0:	e406                	sd	ra,8(sp)
 7f2:	e022                	sd	s0,0(sp)
 7f4:	0800                	addi	s0,sp,16
 7f6:	6505                	lui	a0,0x1
 7f8:	00000097          	auipc	ra,0x0
 7fc:	b62080e7          	jalr	-1182(ra) # 35a <sbrk>
 800:	00000797          	auipc	a5,0x0
 804:	10a7bc23          	sd	a0,280(a5) # 918 <alloc>
 808:	00850793          	addi	a5,a0,8 # 1008 <__BSS_END__+0x6d0>
 80c:	e11c                	sd	a5,0(a0)
 80e:	60a2                	ld	ra,8(sp)
 810:	6402                	ld	s0,0(sp)
 812:	0141                	addi	sp,sp,16
 814:	8082                	ret

0000000000000816 <l_alloc>:
 816:	1101                	addi	sp,sp,-32
 818:	ec06                	sd	ra,24(sp)
 81a:	e822                	sd	s0,16(sp)
 81c:	e426                	sd	s1,8(sp)
 81e:	1000                	addi	s0,sp,32
 820:	84aa                	mv	s1,a0
 822:	00000797          	auipc	a5,0x0
 826:	0ee7a783          	lw	a5,238(a5) # 910 <if_init>
 82a:	c795                	beqz	a5,856 <l_alloc+0x40>
 82c:	00000717          	auipc	a4,0x0
 830:	0ec73703          	ld	a4,236(a4) # 918 <alloc>
 834:	6308                	ld	a0,0(a4)
 836:	40e506b3          	sub	a3,a0,a4
 83a:	6785                	lui	a5,0x1
 83c:	37e1                	addiw	a5,a5,-8
 83e:	9f95                	subw	a5,a5,a3
 840:	02f4f563          	bgeu	s1,a5,86a <l_alloc+0x54>
 844:	1482                	slli	s1,s1,0x20
 846:	9081                	srli	s1,s1,0x20
 848:	94aa                	add	s1,s1,a0
 84a:	e304                	sd	s1,0(a4)
 84c:	60e2                	ld	ra,24(sp)
 84e:	6442                	ld	s0,16(sp)
 850:	64a2                	ld	s1,8(sp)
 852:	6105                	addi	sp,sp,32
 854:	8082                	ret
 856:	00000097          	auipc	ra,0x0
 85a:	f98080e7          	jalr	-104(ra) # 7ee <mem_init>
 85e:	4785                	li	a5,1
 860:	00000717          	auipc	a4,0x0
 864:	0af72823          	sw	a5,176(a4) # 910 <if_init>
 868:	b7d1                	j	82c <l_alloc+0x16>
 86a:	4501                	li	a0,0
 86c:	b7c5                	j	84c <l_alloc+0x36>

000000000000086e <l_free>:
 86e:	1141                	addi	sp,sp,-16
 870:	e422                	sd	s0,8(sp)
 872:	0800                	addi	s0,sp,16
 874:	6422                	ld	s0,8(sp)
 876:	0141                	addi	sp,sp,16
 878:	8082                	ret
